(innbuilder
NNBuilder
p0
(dp1
S'typeRuns'
p2
I2
sS'success'
p3
Vback
p4
sS'hiddenLayers'
p5
(lp6
I2
asS'nn'
p7
ccopy_reg
_reconstructor
p8
(cpybrain.structure.networks.feedforward
FeedForwardNetwork
p9
c__builtin__
object
p10
Ntp11
Rp12
(dp13
S'indim'
p14
I2
sS'modulesSorted'
p15
(lp16
g8
(cpybrain.structure.modules.linearlayer
LinearLayer
p17
g10
Ntp18
Rp19
(dp20
g14
I2
sS'inputbuffer'
p21
cnumpy.core.multiarray
_reconstruct
p22
(cnumpy
ndarray
p23
(I0
tp24
S'b'
p25
tp26
Rp27
(I1
(I1
I2
tp28
cnumpy
dtype
p29
(S'f8'
p30
I0
I1
tp31
Rp32
(I3
S'<'
p33
NNNI-1
I-1
I0
tp34
bI00
S'\x00\x00\x00\x00\x80\xa1\xea@\x00\x00\x00\x00\x00=\xc0@'
p35
tp36
bsS'dim'
p37
I2
sS'outputerror'
p38
g22
(g23
(I0
tp39
g25
tp40
Rp41
(I1
(I1
I2
tp42
g32
I00
S'\x00\x00\x00\x00\x00\x00\x00\x00\x00\x00\x00\x00\x00\x00\x00\x00'
p43
tp44
bsS'inputerror'
p45
g22
(g23
(I0
tp46
g25
tp47
Rp48
(I1
(I1
I2
tp49
g32
I00
S'\x00\x00\x00\x00\x00\x00\x00\x00\x00\x00\x00\x00\x00\x00\x00\x00'
p50
tp51
bsS'outputbuffer'
p52
g22
(g23
(I0
tp53
g25
tp54
Rp55
(I1
(I1
I2
tp56
g32
I00
S'\x00\x00\x00\x00\x80\xa1\xea@\x00\x00\x00\x00\x00=\xc0@'
p57
tp58
bsS'_name'
p59
S'LinearLayer-4'
p60
sS'argdict'
p61
(dp62
g37
I2
sS'name'
p63
NssS'outdim'
p64
I2
sS'offset'
p65
I0
sS'bufferlist'
p66
(lp67
(g21
I2
tp68
a(g45
I2
tp69
a(g52
I2
tp70
a(g38
I2
tp71
asbag8
(cpybrain.structure.modules.biasunit
BiasUnit
p72
g10
Ntp73
Rp74
(dp75
g14
I0
sg21
g22
(g23
(I0
tp76
g25
tp77
Rp78
(I1
(I1
I0
tp79
g32
I00
S''
p80
tp81
bsg38
g22
(g23
(I0
tp82
g25
tp83
Rp84
(I1
(I1
I1
tp85
g32
I00
S'\x00\x00\x00\x00\x00\x00\x00\x00'
p86
tp87
bsg45
g22
(g23
(I0
tp88
g25
tp89
Rp90
(I1
(I1
I0
tp91
g32
I00
g80
tp92
bsg52
g22
(g23
(I0
tp93
g25
tp94
Rp95
(I1
(I1
I1
tp96
g32
I00
S'\x00\x00\x00\x00\x00\x00\xf0?'
p97
tp98
bsg59
S'bias0'
p99
sg61
(dp100
g63
g99
ssg64
I1
sg65
I0
sg66
(lp101
(g21
I0
tp102
a(g45
I0
tp103
a(g52
I1
tp104
a(g38
I1
tp105
asbag8
(cpybrain.structure.modules.sigmoidlayer
SigmoidLayer
p106
g10
Ntp107
Rp108
(dp109
g14
I2
sg21
g22
(g23
(I0
tp110
g25
tp111
Rp112
(I1
(I1
I2
tp113
g32
I00
S'\xd6\xb08J\xc28\xc7@\xc0u\xf9\xb7v\xaf\xa5@'
p114
tp115
bsg37
I2
sg38
g22
(g23
(I0
tp116
g25
tp117
Rp118
(I1
(I1
I2
tp119
g32
I00
S'\xbc\x9f \x18\x05\xe4\xa1\xbf~\xc2\x8c\x0e,\xc6\xb3?'
p120
tp121
bsg45
g22
(g23
(I0
tp122
g25
tp123
Rp124
(I1
(I1
I2
tp125
g32
I00
S'\x00\x00\x00\x00\x00\x00\x00\x80\x00\x00\x00\x00\x00\x00\x00\x00'
p126
tp127
bsg52
g22
(g23
(I0
tp128
g25
tp129
Rp130
(I1
(I1
I2
tp131
g32
I00
S'\x00\x00\x00\x00\x00\x00\xf0?\x00\x00\x00\x00\x00\x00\xf0?'
p132
tp133
bsg59
Nsg61
(dp134
g37
I2
sg63
Nssg64
I2
sg65
I0
sg66
(lp135
(g21
I2
tp136
a(g45
I2
tp137
a(g52
I2
tp138
a(g38
I2
tp139
asbag8
(g106
g10
Ntp140
Rp141
(dp142
g14
I1
sg21
g22
(g23
(I0
tp143
g25
tp144
Rp145
(I1
(I1
I1
tp146
g32
I00
S'\xb8&9\x82D@\xf7?'
p147
tp148
bsg37
I1
sg38
g22
(g23
(I0
tp149
g25
tp150
Rp151
(I1
(I1
I1
tp152
g32
I00
S'\xb0\x8a\xa6\xf5\xe5A\xc8?'
p153
tp154
bsg45
g22
(g23
(I0
tp155
g25
tp156
Rp157
(I1
(I1
I1
tp158
g32
I00
S'f2\t\x0c\x8e\xce\x9d?'
p159
tp160
bsg52
g22
(g23
(I0
tp161
g25
tp162
Rp163
(I1
(I1
I1
tp164
g32
I00
S'T]\x96\x82\x86\xef\xe9?'
p165
tp166
bsg59
Nsg61
(dp167
g37
I1
sg63
Nssg64
I1
sg65
I0
sg66
(lp168
(g21
I1
tp169
a(g45
I1
tp170
a(g52
I1
tp171
a(g38
I1
tp172
asbasS'inmodules'
p173
(lp174
g19
asg38
g22
(g23
(I0
tp175
g25
tp176
Rp177
(I1
(I1
I1
tp178
g32
I00
S'\xb0\x8a\xa6\xf5\xe5A\xc8?'
p179
tp180
bsg45
g22
(g23
(I0
tp181
g25
tp182
Rp183
(I1
(I1
I2
tp184
g32
I00
S'\x00\x00\x00\x00\x00\x00\x00\x00\x00\x00\x00\x00\x00\x00\x00\x00'
p185
tp186
bsS'_derivs'
p187
g22
(g23
(I0
tp188
g25
tp189
Rp190
(I1
(I8
tp191
g32
I00
S'\x00\x00\x00\x00\x00\x00\x00\x00\x00\x00\x00\x00\x00\x00\x00\x00\x00\x00\x00\x00\x00\x00\x00\x00\x00\x00\x00\x00\x00\x00\x00\x00\x00\x00\x00\x00\x00\x00\x00\x00\x00\x00\x00\x00\x00\x00\x00\x00\x00\x00\x00\x00\x00\x00\x00\x00\x00\x00\x00\x00\x00\x00\x00\x00'
p192
tp193
bsS'modules'
p194
c__builtin__
set
p195
((lp196
g141
ag19
ag74
ag108
atp197
Rp198
sg52
g22
(g23
(I0
tp199
g25
tp200
Rp201
(I1
(I1
I1
tp202
g32
I00
S'T]\x96\x82\x86\xef\xe9?'
p203
tp204
bsg59
S'FeedForwardNetwork-8'
p205
sS'connections'
p206
(dp207
g141
(lp208
sg19
(lp209
g8
(cpybrain.structure.connections.full
FullConnection
p210
g10
Ntp211
Rp212
(dp213
g14
I2
sg64
I2
sS'outSliceFrom'
p214
I0
sS'inSliceTo'
p215
I2
sS'inmod'
p216
g19
sg187
g22
(g23
(I0
tp217
g25
tp218
Rp219
(I1
(I4
tp220
g32
I00
S'\x00\x00\x00\x00\x00\x00\x00\x00\x00\x00\x00\x00\x00\x00\x00\x00\x00\x00\x00\x00\x00\x00\x00\x00\x00\x00\x00\x00\x00\x00\x00\x00'
p221
tp222
bsS'outmod'
p223
g108
sg59
S'FullConnection-5'
p224
sg61
(dp225
g216
g19
sg223
g108
ssS'paramdim'
p226
I4
sS'owner'
p227
g12
sS'outSliceTo'
p228
I2
sS'hasDerivatives'
p229
I01
sS'inSliceFrom'
p230
I0
sS'_params'
p231
g22
(g23
(I0
tp232
g25
tp233
Rp234
(I1
(I4
tp235
g32
I00
S'\xcfi\xaa\x82t\x9a\xbf?\xa3?\x13\x87\x93\xd7\xe3?\xe9\x81\xe1\xd2;\x18\xda?+u\xc1\x05\xe0\xb9\x02\xc0'
p236
tp237
bsbasg74
(lp238
g8
(g210
g10
Ntp239
Rp240
(dp241
g14
I1
sg64
I2
sg214
I0
sg215
I1
sg216
g74
sg187
g22
(g23
(I0
tp242
g25
tp243
Rp244
(I1
(I2
tp245
g32
I00
S'\x00\x00\x00\x00\x00\x00\x00\x00\x00\x00\x00\x00\x00\x00\x00\x00'
p246
tp247
bsg223
g108
sg59
S'FullConnection-6'
p248
sg61
(dp249
g216
g74
sg223
g108
ssg226
I2
sg227
g12
sg228
I2
sg229
I01
sg230
I0
sg231
g22
(g23
(I0
tp250
g25
tp251
Rp252
(I1
(I2
tp253
g32
I00
S'\x08\r\xea\xd3\xcb\xcf\xf4?\xc0\x80\x1bw6\xb3\xe7\xbf'
p254
tp255
bsbasg108
(lp256
g8
(g210
g10
Ntp257
Rp258
(dp259
g14
I2
sg64
I1
sg214
I0
sg215
I2
sg216
g108
sg187
g22
(g23
(I0
tp260
g25
tp261
Rp262
(I1
(I2
tp263
g32
I00
S'\x00\x00\x00\x00\x00\x00\x00\x00\x00\x00\x00\x00\x00\x00\x00\x00'
p264
tp265
bsg223
g141
sg59
S'FullConnection-7'
p266
sg61
(dp267
g216
g108
sg223
g141
ssg226
I2
sg227
g12
sg228
I1
sg229
I01
sg230
I0
sg231
g22
(g23
(I0
tp268
g25
tp269
Rp270
(I1
(I2
tp271
g32
I00
S't\xfe\xb2\x9e\xd13\xf3\xbf\x84\xd5WI<;\x05@'
p272
tp273
bsbassS'motherconnections'
p274
(lp275
sg21
g22
(g23
(I0
tp276
g25
tp277
Rp278
(I1
(I1
I2
tp279
g32
I00
S'\x00\x00\x00\x00\x80\xa1\xea@\x00\x00\x00\x00\x00=\xc0@'
p280
tp281
bsg61
(dp282
g63
g205
ssg64
I1
sS'outmodules'
p283
(lp284
g141
asg226
I8
sg66
(lp285
(g21
I2
tp286
a(g45
I2
tp287
a(g52
I1
tp288
a(g38
I1
tp289
asS'sorted'
p290
I01
sS'_Network__offset'
p291
I0
sg229
I01
sg231
g22
(g23
(I0
tp292
g25
tp293
Rp294
(I1
(I8
tp295
g32
I00
S'\xcfi\xaa\x82t\x9a\xbf?\xa3?\x13\x87\x93\xd7\xe3?\xe9\x81\xe1\xd2;\x18\xda?+u\xc1\x05\xe0\xb9\x02\xc0\x08\r\xea\xd3\xcb\xcf\xf4?\xc0\x80\x1bw6\xb3\xe7\xbft\xfe\xb2\x9e\xd13\xf3\xbf\x84\xd5WI<;\x05@'
p296
tp297
bsbsS'input'
p298
(lp299
Vsrc_bytes
p300
aVdst_bytes
p301
asS'normRuns'
p302
I2
sg63
S'back'
p303
sb.